target datalayout = "e-m:e-p270:32:32-p271:32:32-p272:64:64-i64:64-i128:128-f80:128-n8:16:32:64-S128"
target triple = "x86_64-pc-linux-gnu"

%struct.Scheduler = type { ptr, ptr, i32, ptr, i32, i32, %union.pthread_mutex_t, i32, i32, %union.pthread_mutex_t, %union.pthread_cond_t, ptr, i32, ptr, i32, ptr, i32, ptr, i32, ptr, i32, i32, i32, %union.pthread_mutex_t, i64 }
%union.pthread_cond_t = type { %struct.__pthread_cond_s }
%struct.__pthread_cond_s = type { %union.__atomic_wide_counter, %union.__atomic_wide_counter, [2 x i32], [2 x i32], i32, i32, [2 x i32] }
%union.__atomic_wide_counter = type { i64 }
%union.pthread_mutex_t = type { %struct.__pthread_mutex_s }
%struct.__pthread_mutex_s = type { i32, i32, i32, i32, i32, i16, i16, %struct.__pthread_internal_list }
%struct.__pthread_internal_list = type { ptr, ptr }
%struct.SchTask = type { ptr, %struct.SchedulerNode, ptr, ptr, i64, i32 }
%struct.SchedulerNode = type { i32, i32, i32 }
%struct.SchMux = type { ptr, ptr, i32, i32, ptr, %struct.SchTask, i32, ptr, i32, ptr }
%struct.SchMuxStream = type { %struct.SchedulerNode, %struct.SchedulerNode, ptr, i32, %struct.PreMuxQueue, i32, i64, i32 }
%struct.PreMuxQueue = type { ptr, i32, i64, i64 }
%struct.SchDec = type { ptr, %struct.SchedulerNode, ptr, i32, %struct.SchTask, ptr, ptr, i32, ptr }

@.str = private unnamed_addr constant [30 x i8] c"Assertion %s failed at %s:%d\0A\00", align 1
@.str.1 = private unnamed_addr constant [22 x i8] c"mux_idx < sch->nb_mux\00", align 1
@.str.2 = private unnamed_addr constant [23 x i8] c"fftools/ffmpeg_sched.c\00", align 1
@.str.22 = private unnamed_addr constant [29 x i8] c"stream_idx < mux->nb_streams\00", align 1

; Function Attrs: nounwind uwtable
define i32 @sch_mux_sub_heartbeat(ptr noundef %0, i32 noundef %1, i32 noundef %2, ptr noundef %3) #0 {
  %5 = alloca i32, align 4
  %6 = alloca ptr, align 8
  %7 = alloca i32, align 4
  %8 = alloca i32, align 4
  %9 = alloca ptr, align 8
  %10 = alloca ptr, align 8
  %11 = alloca ptr, align 8
  %12 = alloca i32, align 4
  %13 = alloca i32, align 4
  %14 = alloca ptr, align 8
  %15 = alloca i32, align 4
  store ptr %0, ptr %6, align 8, !tbaa !10
  store i32 %1, ptr %7, align 4, !tbaa !12
  store i32 %2, ptr %8, align 4, !tbaa !12
  store ptr %3, ptr %9, align 8, !tbaa !208
  call void @llvm.lifetime.start.p0(i64 8, ptr %10) #9
  call void @llvm.lifetime.start.p0(i64 8, ptr %11) #9
  br label %16

16:                                               ; preds = %4
  %17 = load i32, ptr %7, align 4, !tbaa !12
  %18 = load ptr, ptr %6, align 8, !tbaa !10
  %19 = getelementptr inbounds nuw %struct.Scheduler, ptr %18, i32 0, i32 4
  %20 = load i32, ptr %19, align 8, !tbaa !39
  %21 = icmp ult i32 %17, %20
  br i1 %21, label %23, label %22

22:                                               ; preds = %16
  call void (ptr, i32, ptr, ...) @av_log(ptr noundef null, i32 noundef 0, ptr noundef @.str, ptr noundef @.str.1, ptr noundef @.str.2, i32 noundef 2110)
  call void @abort() #10
  unreachable

23:                                               ; preds = %16
  br label %24

24:                                               ; preds = %23
  br label %25

25:                                               ; preds = %24
  %26 = load ptr, ptr %6, align 8, !tbaa !10
  %27 = getelementptr inbounds nuw %struct.Scheduler, ptr %26, i32 0, i32 3
  %28 = load ptr, ptr %27, align 8, !tbaa !40
  %29 = load i32, ptr %7, align 4, !tbaa !12
  %30 = zext i32 %29 to i64
  %31 = getelementptr inbounds nuw %struct.SchMux, ptr %28, i64 %30
  store ptr %31, ptr %10, align 8, !tbaa !41
  br label %32

32:                                               ; preds = %25
  %33 = load i32, ptr %8, align 4, !tbaa !12
  %34 = load ptr, ptr %10, align 8, !tbaa !41
  %35 = getelementptr inbounds nuw %struct.SchMux, ptr %34, i32 0, i32 2
  %36 = load i32, ptr %35, align 8, !tbaa !42
  %37 = icmp ult i32 %33, %36
  br i1 %37, label %39, label %38

38:                                               ; preds = %32
  call void (ptr, i32, ptr, ...) @av_log(ptr noundef null, i32 noundef 0, ptr noundef @.str, ptr noundef @.str.22, ptr noundef @.str.2, i32 noundef 2113)
  call void @abort() #10
  unreachable

39:                                               ; preds = %32
  br label %40

40:                                               ; preds = %39
  br label %41

41:                                               ; preds = %40
  %42 = load ptr, ptr %10, align 8, !tbaa !41
  %43 = getelementptr inbounds nuw %struct.SchMux, ptr %42, i32 0, i32 1
  %44 = load ptr, ptr %43, align 8, !tbaa !46
  %45 = load i32, ptr %8, align 4, !tbaa !12
  %46 = zext i32 %45 to i64
  %47 = getelementptr inbounds nuw %struct.SchMuxStream, ptr %44, i64 %46
  store ptr %47, ptr %11, align 8, !tbaa !47
  call void @llvm.lifetime.start.p0(i64 4, ptr %12) #9
  store i32 0, ptr %12, align 4, !tbaa !12
  br label %48

48:                                               ; preds = %88, %41
  %49 = load i32, ptr %12, align 4, !tbaa !12
  %50 = load ptr, ptr %11, align 8, !tbaa !47
  %51 = getelementptr inbounds nuw %struct.SchMuxStream, ptr %50, i32 0, i32 3
  %52 = load i32, ptr %51, align 8, !tbaa !163
  %53 = icmp ult i32 %49, %52
  br i1 %53, label %55, label %54

54:                                               ; preds = %48
  store i32 6, ptr %13, align 4
  br label %91

55:                                               ; preds = %48
  call void @llvm.lifetime.start.p0(i64 8, ptr %14) #9
  %56 = load ptr, ptr %6, align 8, !tbaa !10
  %57 = getelementptr inbounds nuw %struct.Scheduler, ptr %56, i32 0, i32 11
  %58 = load ptr, ptr %57, align 8, !tbaa !57
  %59 = load ptr, ptr %11, align 8, !tbaa !47
  %60 = getelementptr inbounds nuw %struct.SchMuxStream, ptr %59, i32 0, i32 2
  %61 = load ptr, ptr %60, align 8, !tbaa !164
  %62 = load i32, ptr %12, align 4, !tbaa !12
  %63 = zext i32 %62 to i64
  %64 = getelementptr inbounds nuw i32, ptr %61, i64 %63
  %65 = load i32, ptr %64, align 4, !tbaa !12
  %66 = zext i32 %65 to i64
  %67 = getelementptr inbounds nuw %struct.SchDec, ptr %58, i64 %66
  store ptr %67, ptr %14, align 8, !tbaa !58
  call void @llvm.lifetime.start.p0(i64 4, ptr %15) #9
  %68 = load ptr, ptr %10, align 8, !tbaa !41
  %69 = getelementptr inbounds nuw %struct.SchMux, ptr %68, i32 0, i32 9
  %70 = load ptr, ptr %69, align 8, !tbaa !165
  %71 = load ptr, ptr %9, align 8, !tbaa !208
  %72 = call i32 @av_packet_copy_props(ptr noundef %70, ptr noundef %71)
  store i32 %72, ptr %15, align 4, !tbaa !12
  %73 = load i32, ptr %15, align 4, !tbaa !12
  %74 = icmp slt i32 %73, 0
  br i1 %74, label %75, label %77

75:                                               ; preds = %55
  %76 = load i32, ptr %15, align 4, !tbaa !12
  store i32 %76, ptr %5, align 4
  store i32 1, ptr %13, align 4
  br label %85

77:                                               ; preds = %55
  %78 = load ptr, ptr %14, align 8, !tbaa !58
  %79 = getelementptr inbounds nuw %struct.SchDec, ptr %78, i32 0, i32 5
  %80 = load ptr, ptr %79, align 8, !tbaa !219
  %81 = load ptr, ptr %10, align 8, !tbaa !41
  %82 = getelementptr inbounds nuw %struct.SchMux, ptr %81, i32 0, i32 9
  %83 = load ptr, ptr %82, align 8, !tbaa !165
  %84 = call i32 @tq_send(ptr noundef %80, i32 noundef 0, ptr noundef %83)
  store i32 0, ptr %13, align 4
  br label %85

85:                                               ; preds = %77, %75
  call void @llvm.lifetime.end.p0(i64 4, ptr %15) #9
  call void @llvm.lifetime.end.p0(i64 8, ptr %14) #9
  %86 = load i32, ptr %13, align 4
  switch i32 %86, label %91 [
    i32 0, label %87
  ]

87:                                               ; preds = %85
  br label %88

88:                                               ; preds = %87
  %89 = load i32, ptr %12, align 4, !tbaa !12
  %90 = add i32 %89, 1
  store i32 %90, ptr %12, align 4, !tbaa !12
  br label %48, !llvm.loop !230

91:                                               ; preds = %85, %54
  call void @llvm.lifetime.end.p0(i64 4, ptr %12) #9
  %92 = load i32, ptr %13, align 4
  switch i32 %92, label %94 [
    i32 6, label %93
  ]

93:                                               ; preds = %91
  store i32 0, ptr %5, align 4
  store i32 1, ptr %13, align 4
  br label %94

94:                                               ; preds = %93, %91
  call void @llvm.lifetime.end.p0(i64 8, ptr %11) #9
  call void @llvm.lifetime.end.p0(i64 8, ptr %10) #9
  %95 = load i32, ptr %5, align 4
  ret i32 %95
}