; Function Attrs: nounwind uwtable
define range(i32 -2147483648, 1) i32 @sch_mux_sub_heartbeat(ptr noundef readonly captures(none) %0, i32 noundef %1, i32 noundef %2, ptr noundef %3) local_unnamed_addr #0 {
  %5 = getelementptr inbounds nuw i8, ptr %0, i64 32
  %6 = load i32, ptr %5, align 8, !tbaa !20
  %7 = icmp ult i32 %1, %6
  br i1 %7, label %9, label %8

8:                                                ; preds = %4
  tail call void (ptr, i32, ptr, ...) @av_log(ptr noundef null, i32 noundef 0, ptr noundef nonnull @.str, ptr noundef nonnull @.str.1, ptr noundef nonnull @.str.2, i32 noundef 2110) #9
  tail call void @abort() #10
  unreachable

9:                                                ; preds = %4
  %10 = getelementptr inbounds nuw i8, ptr %0, i64 24
  %11 = load ptr, ptr %10, align 8, !tbaa !35
  %12 = zext i32 %1 to i64
  %13 = getelementptr inbounds nuw %struct.SchMux, ptr %11, i64 %12
  %14 = getelementptr inbounds nuw i8, ptr %13, i64 16
  %15 = load i32, ptr %14, align 8, !tbaa !36
  %16 = icmp ult i32 %2, %15
  br i1 %16, label %18, label %17

17:                                               ; preds = %9
  tail call void (ptr, i32, ptr, ...) @av_log(ptr noundef null, i32 noundef 0, ptr noundef nonnull @.str, ptr noundef nonnull @.str.22, ptr noundef nonnull @.str.2, i32 noundef 2113) #9
  tail call void @abort() #10
  unreachable

18:                                               ; preds = %9
  %19 = getelementptr inbounds nuw i8, ptr %13, i64 8
  %20 = load ptr, ptr %19, align 8, !tbaa !41
  %21 = zext i32 %2 to i64
  %22 = getelementptr inbounds nuw %struct.SchMuxStream, ptr %20, i64 %21
  %23 = getelementptr inbounds nuw i8, ptr %0, i64 176
  %24 = getelementptr inbounds nuw i8, ptr %22, i64 32
  %25 = load i32, ptr %24, align 8, !tbaa !140
  %.not31.not = icmp eq i32 %25, 0
  br i1 %.not31.not, label %._crit_edge, label %.lr.ph

.lr.ph:                                           ; preds = %18
  %26 = getelementptr inbounds nuw i8, ptr %22, i64 24
  %27 = getelementptr inbounds nuw i8, ptr %13, i64 112
  br label %28

28:                                               ; preds = %.lr.ph, %36
  %indvars.iv = phi i64 [ 0, %.lr.ph ], [ %indvars.iv.next, %36 ]
  %29 = load ptr, ptr %23, align 8, !tbaa !50
  %30 = load ptr, ptr %26, align 8, !tbaa !141
  %31 = getelementptr inbounds nuw i32, ptr %30, i64 %indvars.iv
  %32 = load i32, ptr %31, align 4, !tbaa !68
  %33 = load ptr, ptr %27, align 8, !tbaa !142
  %34 = tail call i32 @av_packet_copy_props(ptr noundef %33, ptr noundef %3) #9
  %35 = icmp sgt i32 %34, -1
  br i1 %35, label %36, label %._crit_edge

36:                                               ; preds = %28
  %37 = zext i32 %32 to i64
  %38 = getelementptr inbounds nuw %struct.SchDec, ptr %29, i64 %37, i32 5
  %39 = load ptr, ptr %38, align 8, !tbaa !202
  %40 = load ptr, ptr %27, align 8, !tbaa !142
  %41 = tail call i32 @tq_send(ptr noundef %39, i32 noundef 0, ptr noundef %40) #9
  %indvars.iv.next = add nuw nsw i64 %indvars.iv, 1
  %42 = load i32, ptr %24, align 8, !tbaa !140
  %43 = zext i32 %42 to i64
  %.not = icmp samesign ult i64 %indvars.iv.next, %43
  br i1 %.not, label %28, label %._crit_edge, !llvm.loop !211

._crit_edge:                                      ; preds = %36, %28, %18
  %spec.select = phi i32 [ 0, %18 ], [ %34, %28 ], [ 0, %36 ]
  ret i32 %spec.select
}